target datalayout = "e-m:e-p270:32:32-p271:32:32-p272:64:64-i64:64-i128:128-f80:128-n8:16:32:64-S128"
target triple = "x86_64-pc-linux-gnu"

%struct.AVProbeData = type { ptr, ptr, i32, ptr }
%struct.AVFormatContext = type { ptr, ptr, ptr, ptr, ptr, i32, i32, ptr, i32, ptr, i32, ptr, ptr, i64, i64, i64, i32, i32, i32, i64, i64, ptr, i32, i32, ptr, i32, i32, i32, i32, ptr, i64, i32, i32, %struct.AVIOInterruptCB, i32, i32, i32, i32, i64, i32, i32, i32, i32, i32, i32, i32, i32, i32, i32, i32, i32, i64, i32, i32, i32, i32, i32, ptr, ptr, ptr, ptr, i32, ptr, ptr, ptr, ptr, i32, ptr, ptr, i64, ptr, ptr, ptr, i64 }
%struct.AVIOInterruptCB = type { ptr, ptr }
%struct.AVStream = type { ptr, i32, i32, ptr, ptr, %struct.AVRational, i64, i64, i64, i32, i32, %struct.AVRational, ptr, %struct.AVRational, %struct.AVPacket, i32, %struct.AVRational, i32 }
%struct.AVPacket = type { ptr, i64, i64, ptr, i32, i32, i32, ptr, i32, i64, i64, ptr, ptr, %struct.AVRational }
%struct.AVRational = type { i32, i32 }
%struct.LC3DemuxContext = type { i32, i64 }
%struct.FFStream = type { %struct.AVStream, ptr, i32, ptr, i32, ptr, i32, %struct.anon, i32, i32, %struct.FFFrac, ptr, ptr, i32, i32, i64, i64, i32, i32, i32, i64, i64, i64, i32, i64, i64, i64, i32, i32, [17 x i64], [17 x i8], [17 x i64], i64, i8, i8, %struct.AVRational, %struct.AVProbeData, ptr, i64, i32, i32, i32, ptr, i32, i32, i64, i64, ptr, %struct.AVRational }
%struct.anon = type { ptr, i32 }
%struct.FFFrac = type { i64, i64, i64 }

; Function Attrs: alwaysinline nounwind uwtable
define internal ptr @ffstream(ptr noundef %0) #5 {
  %2 = alloca ptr, align 8
  store ptr %0, ptr %2, align 8, !tbaa !35
  %3 = load ptr, ptr %2, align 8, !tbaa !35
  ret ptr %3
}

; Function Attrs: alwaysinline nounwind uwtable
define internal i64 @avio_tell(ptr noundef %0) #5 {
  %2 = alloca ptr, align 8
  store ptr %0, ptr %2, align 8, !tbaa !62
  %3 = load ptr, ptr %2, align 8, !tbaa !62
  %4 = call i64 @avio_seek(ptr noundef %3, i64 noundef 0, i32 noundef 1)
  ret i64 %4
}

; Function Attrs: nounwind uwtable
define internal i32 @lc3_read_packet(ptr noundef %0, ptr noundef %1) #0 {
  %3 = alloca i32, align 4
  %4 = alloca ptr, align 8
  %5 = alloca ptr, align 8
  %6 = alloca ptr, align 8
  %7 = alloca ptr, align 8
  %8 = alloca ptr, align 8
  %9 = alloca i64, align 8
  %10 = alloca i64, align 8
  %11 = alloca i32, align 4
  %12 = alloca i32, align 4
  store ptr %0, ptr %4, align 8, !tbaa !16
  store ptr %1, ptr %5, align 8, !tbaa !59
  call void @llvm.lifetime.start.p0(i64 8, ptr %6) #6
  %13 = load ptr, ptr %4, align 8, !tbaa !16
  %14 = getelementptr inbounds nuw %struct.AVFormatContext, ptr %13, i32 0, i32 3
  %15 = load ptr, ptr %14, align 8, !tbaa !18
  store ptr %15, ptr %6, align 8, !tbaa !33
  call void @llvm.lifetime.start.p0(i64 8, ptr %7) #6
  %16 = load ptr, ptr %4, align 8, !tbaa !16
  %17 = getelementptr inbounds nuw %struct.AVFormatContext, ptr %16, i32 0, i32 7
  %18 = load ptr, ptr %17, align 8, !tbaa !61
  %19 = getelementptr inbounds ptr, ptr %18, i64 0
  %20 = load ptr, ptr %19, align 8, !tbaa !35
  store ptr %20, ptr %7, align 8, !tbaa !35
  call void @llvm.lifetime.start.p0(i64 8, ptr %8) #6
  %21 = load ptr, ptr %4, align 8, !tbaa !16
  %22 = getelementptr inbounds nuw %struct.AVFormatContext, ptr %21, i32 0, i32 4
  %23 = load ptr, ptr %22, align 8, !tbaa !37
  store ptr %23, ptr %8, align 8, !tbaa !62
  call void @llvm.lifetime.start.p0(i64 8, ptr %9) #6
  %24 = load ptr, ptr %8, align 8, !tbaa !62
  %25 = call i64 @avio_tell(ptr noundef %24)
  store i64 %25, ptr %9, align 8, !tbaa !63
  call void @llvm.lifetime.start.p0(i64 8, ptr %10) #6
  call void @llvm.lifetime.start.p0(i64 4, ptr %11) #6
  %26 = load ptr, ptr %4, align 8, !tbaa !16
  %27 = getelementptr inbounds nuw %struct.AVFormatContext, ptr %26, i32 0, i32 4
  %28 = load ptr, ptr %27, align 8, !tbaa !37
  %29 = load ptr, ptr %5, align 8, !tbaa !59
  %30 = load ptr, ptr %8, align 8, !tbaa !62
  %31 = call i32 @avio_rl16(ptr noundef %30)
  %32 = call i32 @av_get_packet(ptr noundef %28, ptr noundef %29, i32 noundef %31)
  store i32 %32, ptr %11, align 4, !tbaa !15
  %33 = load i32, ptr %11, align 4, !tbaa !15
  %34 = icmp slt i32 %33, 0
  br i1 %34, label %35, label %37

35:                                               ; preds = %2
  %36 = load i32, ptr %11, align 4, !tbaa !15
  store i32 %36, ptr %3, align 4
  store i32 1, ptr %12, align 4
  br label %91

37:                                               ; preds = %2
  %38 = load i64, ptr %9, align 8, !tbaa !63
  %39 = load ptr, ptr %5, align 8, !tbaa !59
  %40 = getelementptr inbounds nuw %struct.AVPacket, ptr %39, i32 0, i32 10
  store i64 %38, ptr %40, align 8, !tbaa !64
  %41 = load ptr, ptr %6, align 8, !tbaa !33
  %42 = getelementptr inbounds nuw %struct.LC3DemuxContext, ptr %41, i32 0, i32 1
  %43 = load i64, ptr %42, align 8, !tbaa !58
  %44 = icmp slt i64 %43, 0
  br i1 %44, label %45, label %50

45:                                               ; preds = %37
  %46 = load ptr, ptr %6, align 8, !tbaa !33
  %47 = getelementptr inbounds nuw %struct.LC3DemuxContext, ptr %46, i32 0, i32 0
  %48 = load i32, ptr %47, align 8, !tbaa !56
  %49 = sext i32 %48 to i64
  br label %72

50:                                               ; preds = %37
  %51 = load ptr, ptr %6, align 8, !tbaa !33
  %52 = getelementptr inbounds nuw %struct.LC3DemuxContext, ptr %51, i32 0, i32 1
  %53 = load i64, ptr %52, align 8, !tbaa !58
  %54 = load ptr, ptr %7, align 8, !tbaa !35
  %55 = call ptr @ffstream(ptr noundef %54)
  %56 = getelementptr inbounds nuw %struct.FFStream, ptr %55, i32 0, i32 46
  %57 = load i64, ptr %56, align 8, !tbaa !65
  %58 = sub nsw i64 %53, %57
  %59 = icmp sgt i64 %58, 0
  br i1 %59, label %60, label %69

60:                                               ; preds = %50
  %61 = load ptr, ptr %6, align 8, !tbaa !33
  %62 = getelementptr inbounds nuw %struct.LC3DemuxContext, ptr %61, i32 0, i32 1
  %63 = load i64, ptr %62, align 8, !tbaa !58
  %64 = load ptr, ptr %7, align 8, !tbaa !35
  %65 = call ptr @ffstream(ptr noundef %64)
  %66 = getelementptr inbounds nuw %struct.FFStream, ptr %65, i32 0, i32 46
  %67 = load i64, ptr %66, align 8, !tbaa !65
  %68 = sub nsw i64 %63, %67
  br label %70

69:                                               ; preds = %50
  br label %70

70:                                               ; preds = %69, %60
  %71 = phi i64 [ %68, %60 ], [ 0, %69 ]
  br label %72

72:                                               ; preds = %70, %45
  %73 = phi i64 [ %49, %45 ], [ %71, %70 ]
  store i64 %73, ptr %10, align 8, !tbaa !63
  %74 = load ptr, ptr %6, align 8, !tbaa !33
  %75 = getelementptr inbounds nuw %struct.LC3DemuxContext, ptr %74, i32 0, i32 0
  %76 = load i32, ptr %75, align 8, !tbaa !56
  %77 = sext i32 %76 to i64
  %78 = load i64, ptr %10, align 8, !tbaa !63
  %79 = icmp sgt i64 %77, %78
  br i1 %79, label %80, label %82

80:                                               ; preds = %72
  %81 = load i64, ptr %10, align 8, !tbaa !63
  br label %87

82:                                               ; preds = %72
  %83 = load ptr, ptr %6, align 8, !tbaa !33
  %84 = getelementptr inbounds nuw %struct.LC3DemuxContext, ptr %83, i32 0, i32 0
  %85 = load i32, ptr %84, align 8, !tbaa !56
  %86 = sext i32 %85 to i64
  br label %87

87:                                               ; preds = %82, %80
  %88 = phi i64 [ %81, %80 ], [ %86, %82 ]
  %89 = load ptr, ptr %5, align 8, !tbaa !59
  %90 = getelementptr inbounds nuw %struct.AVPacket, ptr %89, i32 0, i32 9
  store i64 %88, ptr %90, align 8, !tbaa !76
  store i32 0, ptr %3, align 4
  store i32 1, ptr %12, align 4
  br label %91

91:                                               ; preds = %87, %35
  call void @llvm.lifetime.end.p0(i64 4, ptr %11) #6
  call void @llvm.lifetime.end.p0(i64 8, ptr %10) #6
  call void @llvm.lifetime.end.p0(i64 8, ptr %9) #6
  call void @llvm.lifetime.end.p0(i64 8, ptr %8) #6
  call void @llvm.lifetime.end.p0(i64 8, ptr %7) #6
  call void @llvm.lifetime.end.p0(i64 8, ptr %6) #6
  %92 = load i32, ptr %3, align 4
  ret i32 %92
}