; Function Attrs: nounwind uwtable
define internal range(i32 -2147483648, 1) i32 @lc3_read_packet(ptr noundef readonly captures(none) %0, ptr noundef %1) #1 {
  %3 = getelementptr inbounds nuw i8, ptr %0, i64 24
  %4 = load ptr, ptr %3, align 8, !tbaa !13
  %5 = getelementptr inbounds nuw i8, ptr %0, i64 48
  %6 = load ptr, ptr %5, align 8, !tbaa !48
  %7 = load ptr, ptr %6, align 8, !tbaa !49
  %8 = getelementptr inbounds nuw i8, ptr %0, i64 32
  %9 = load ptr, ptr %8, align 8, !tbaa !28
  %10 = tail call i64 @avio_seek(ptr noundef %9, i64 noundef 0, i32 noundef 1) #5
  %11 = load ptr, ptr %8, align 8, !tbaa !28
  %12 = tail call i32 @avio_rl16(ptr noundef %9) #5
  %13 = tail call i32 @av_get_packet(ptr noundef %11, ptr noundef %1, i32 noundef %12) #5
  %14 = icmp slt i32 %13, 0
  br i1 %14, label %31, label %15

15:                                               ; preds = %2
  %16 = getelementptr inbounds nuw i8, ptr %1, i64 72
  store i64 %10, ptr %16, align 8, !tbaa !51
  %17 = getelementptr inbounds nuw i8, ptr %4, i64 8
  %18 = load i64, ptr %17, align 8, !tbaa !47
  %19 = icmp slt i64 %18, 0
  br i1 %19, label %20, label %23

20:                                               ; preds = %15
  %21 = load i32, ptr %4, align 8, !tbaa !45
  %22 = sext i32 %21 to i64
  br label %28

23:                                               ; preds = %15
  %24 = getelementptr inbounds nuw i8, ptr %7, i64 840
  %25 = load i64, ptr %24, align 8, !tbaa !52
  %26 = icmp sgt i64 %18, %25
  %27 = sub nsw i64 %18, %25
  %spec.select = select i1 %26, i64 %27, i64 0
  %.pre = load i32, ptr %4, align 8, !tbaa !45
  %.pre26 = sext i32 %.pre to i64
  br label %28

28:                                               ; preds = %23, %20
  %.pre-phi = phi i64 [ %.pre26, %23 ], [ %22, %20 ]
  %29 = phi i64 [ %spec.select, %23 ], [ %22, %20 ]
  %. = tail call i64 @llvm.smin.i64(i64 %29, i64 %.pre-phi)
  %30 = getelementptr inbounds nuw i8, ptr %1, i64 64
  store i64 %., ptr %30, align 8, !tbaa !64
  br label %31

31:                                               ; preds = %2, %28
  %.0 = phi i32 [ 0, %28 ], [ %13, %2 ]
  ret i32 %.0
}